---
triple:          'arm64-apple-darwin'
binary-path:     'build/main'
relocations:
  - { offsetInCU: 0xB5C7, offset: 0xB5C7, size: 0x8, addend: 0x0, symName: __ZNSt3__17advanceB8ue170006IP5PixelllvEEvRT_T0_, symObjAddr: 0x5ECC, symBinAddr: 0x100009460, symSize: 0x38 }
  - { offsetInCU: 0xB652, offset: 0xB652, size: 0x8, addend: 0x0, symName: __ZNSt3__124__put_character_sequenceB8ue170006IcNS_11char_traitsIcEEEERNS_13basic_ostreamIT_T0_EES7_PKS4_m, symObjAddr: 0x5FF0, symBinAddr: 0x100009584, symSize: 0x1EC }
  - { offsetInCU: 0xC4D7, offset: 0xC4D7, size: 0x8, addend: 0x0, symName: __ZNSt3__16copy_nB8ue170006IPKcmPcEENS_9enable_ifIXsr37__has_random_access_iterator_categoryIT_EE5valueET1_E4typeES5_T0_S6_, symObjAddr: 0x72B4, symBinAddr: 0x10000A848, symSize: 0x44 }
  - { offsetInCU: 0xD456, offset: 0xD456, size: 0x8, addend: 0x0, symName: __ZNSt3__1plB8ue170006IcNS_11char_traitsIcEENS_9allocatorIcEEEENS_12basic_stringIT_T0_T1_EERKS9_PKS6_, symObjAddr: 0x320, symBinAddr: 0x1000038B4, symSize: 0x11C }
  - { offsetInCU: 0xE43E, offset: 0xE43E, size: 0x8, addend: 0x0, symName: __ZNSt3__1lsB8ue170006IcNS_11char_traitsIcEENS_9allocatorIcEEEERNS_13basic_ostreamIT_T0_EES9_RKNS_12basic_stringIS6_S7_T1_EE, symObjAddr: 0x824, symBinAddr: 0x100003DB8, symSize: 0x4C }
  - { offsetInCU: 0xE496, offset: 0xE496, size: 0x8, addend: 0x0, symName: __ZNSt3__1lsB8ue170006INS_11char_traitsIcEEEERNS_13basic_ostreamIcT_EES6_PKc, symObjAddr: 0x870, symBinAddr: 0x100003E04, symSize: 0x48 }
  - { offsetInCU: 0xE4DC, offset: 0xE4DC, size: 0x8, addend: 0x0, symName: __ZNSt3__14endlB8ue170006IcNS_11char_traitsIcEEEERNS_13basic_ostreamIT_T0_EES7_, symObjAddr: 0x8E4, symBinAddr: 0x100003E78, symSize: 0x58 }
  - { offsetInCU: 0xE51C, offset: 0xE51C, size: 0x8, addend: 0x0, symName: __ZNSt3__112__to_addressB8ue170006IKcEEPT_S3_, symObjAddr: 0x3184, symBinAddr: 0x100006718, symSize: 0x14 }
  - { offsetInCU: 0xE584, offset: 0xE584, size: 0x8, addend: 0x0, symName: __ZNSt3__122__make_exception_guardB8ue170006INS_6vectorI5PixelNS_9allocatorIS2_EEE16__destroy_vectorEEENS_28__exception_guard_exceptionsIT_EES8_, symObjAddr: 0x36D8, symBinAddr: 0x100006C6C, symSize: 0x40 }
  - { offsetInCU: 0xE5B9, offset: 0xE5B9, size: 0x8, addend: 0x0, symName: __ZNSt3__119__allocate_at_leastB8ue170006INS_9allocatorI5PixelEEEENS_19__allocation_resultINS_16allocator_traitsIT_E7pointerEEERS6_m, symObjAddr: 0x3A04, symBinAddr: 0x100006F98, symSize: 0x40 }
  - { offsetInCU: 0xE5FC, offset: 0xE5FC, size: 0x8, addend: 0x0, symName: __ZNSt3__13minB8ue170006ImEERKT_S3_S3_, symObjAddr: 0x3B5C, symBinAddr: 0x1000070F0, symSize: 0x2C }
  - { offsetInCU: 0xE829, offset: 0xE829, size: 0x8, addend: 0x0, symName: __ZNSt3__13minB8ue170006ImNS_6__lessIvvEEEERKT_S5_S5_T0_, symObjAddr: 0x3BE8, symBinAddr: 0x10000717C, symSize: 0x54 }
  - { offsetInCU: 0xE8C8, offset: 0xE8C8, size: 0x8, addend: 0x0, symName: __ZNSt3__120__throw_length_errorB8ue170006EPKc, symObjAddr: 0x3CC4, symBinAddr: 0x100007258, symSize: 0x64 }
  - { offsetInCU: 0xE8F2, offset: 0xE8F2, size: 0x8, addend: 0x0, symName: __ZNSt3__117__libcpp_allocateB8ue170006Emm, symObjAddr: 0x3E38, symBinAddr: 0x1000073CC, symSize: 0x60 }
  - { offsetInCU: 0xE94C, offset: 0xE94C, size: 0x8, addend: 0x0, symName: __ZNSt3__124__is_overaligned_for_newB8ue170006Em, symObjAddr: 0x3E98, symBinAddr: 0x10000742C, symSize: 0x20 }
  - { offsetInCU: 0xE97A, offset: 0xE97A, size: 0x8, addend: 0x0, symName: __ZNSt3__121__libcpp_operator_newB8ue170006IJmSt11align_val_tEEEPvDpT_, symObjAddr: 0x3EB8, symBinAddr: 0x10000744C, symSize: 0x2C }
  - { offsetInCU: 0xE9C7, offset: 0xE9C7, size: 0x8, addend: 0x0, symName: __ZNSt3__121__libcpp_operator_newB8ue170006IJmEEEPvDpT_, symObjAddr: 0x3EE4, symBinAddr: 0x100007478, symSize: 0x24 }
  - { offsetInCU: 0xEA00, offset: 0xEA00, size: 0x8, addend: 0x0, symName: __ZNSt3__112__to_addressB8ue170006I5PixelEEPT_S3_, symObjAddr: 0x4000, symBinAddr: 0x100007594, symSize: 0x14 }
  - { offsetInCU: 0xEA35, offset: 0xEA35, size: 0x8, addend: 0x0, symName: __ZNSt3__119__libcpp_deallocateB8ue170006EPvmm, symObjAddr: 0x44DC, symBinAddr: 0x100007A70, symSize: 0x60 }
  - { offsetInCU: 0xEA9A, offset: 0xEA9A, size: 0x8, addend: 0x0, symName: __ZNSt3__127__do_deallocate_handle_sizeB8ue170006IJSt11align_val_tEEEvPvmDpT_, symObjAddr: 0x453C, symBinAddr: 0x100007AD0, symSize: 0x30 }
  - { offsetInCU: 0xEAED, offset: 0xEAED, size: 0x8, addend: 0x0, symName: __ZNSt3__127__do_deallocate_handle_sizeB8ue170006IJEEEvPvmDpT_, symObjAddr: 0x456C, symBinAddr: 0x100007B00, symSize: 0x28 }
  - { offsetInCU: 0xEB2B, offset: 0xEB2B, size: 0x8, addend: 0x0, symName: __ZNSt3__124__libcpp_operator_deleteB8ue170006IJPvSt11align_val_tEEEvDpT_, symObjAddr: 0x4594, symBinAddr: 0x100007B28, symSize: 0x2C }
  - { offsetInCU: 0xEB74, offset: 0xEB74, size: 0x8, addend: 0x0, symName: __ZNSt3__124__libcpp_operator_deleteB8ue170006IJPvEEEvDpT_, symObjAddr: 0x45C0, symBinAddr: 0x100007B54, symSize: 0x24 }
  - { offsetInCU: 0xEBA9, offset: 0xEBA9, size: 0x8, addend: 0x0, symName: __ZNSt3__130__uninitialized_allocator_copyB8ue170006INS_9allocatorI5PixelEEPS2_S4_S4_EET2_RT_T0_T1_S5_, symObjAddr: 0x4FB4, symBinAddr: 0x100008548, symSize: 0x80 }
  - { offsetInCU: 0xEC46, offset: 0xEC46, size: 0x8, addend: 0x0, symName: __ZNSt3__114__unwrap_rangeB8ue170006IP5PixelS2_EENS_4pairIT0_S4_EET_S6_, symObjAddr: 0x5034, symBinAddr: 0x1000085C8, symSize: 0x60 }
  - { offsetInCU: 0xEC92, offset: 0xEC92, size: 0x8, addend: 0x0, symName: __ZNSt3__135__uninitialized_allocator_copy_implB8ue170006INS_9allocatorI5PixelEES2_S2_S2_LPv0EEEPT2_RT_PT0_SA_S6_, symObjAddr: 0x5094, symBinAddr: 0x100008628, symSize: 0x38 }
  - { offsetInCU: 0xED13, offset: 0xED13, size: 0x8, addend: 0x0, symName: __ZNSt3__113__unwrap_iterB8ue170006IP5PixelNS_18__unwrap_iter_implIS2_Lb1EEELi0EEEDTclsrT0_8__unwrapclsr3stdE7declvalIT_EEEES6_, symObjAddr: 0x50CC, symBinAddr: 0x100008660, symSize: 0x24 }
  - { offsetInCU: 0xED57, offset: 0xED57, size: 0x8, addend: 0x0, symName: __ZNSt3__113__rewrap_iterB8ue170006IP5PixelS2_NS_18__unwrap_iter_implIS2_Lb1EEEEET_S5_T0_, symObjAddr: 0x50F0, symBinAddr: 0x100008684, symSize: 0x3C }
  - { offsetInCU: 0xEDAC, offset: 0xEDAC, size: 0x8, addend: 0x0, symName: __ZNSt3__19make_pairB8ue170006IP5PixelS2_EENS_4pairINS_18__unwrap_ref_decayIT_E4typeENS4_IT0_E4typeEEEOS5_OS8_, symObjAddr: 0x512C, symBinAddr: 0x1000086C0, symSize: 0x38 }
  - { offsetInCU: 0xEEFE, offset: 0xEEFE, size: 0x8, addend: 0x0, symName: __ZNSt3__14copyB8ue170006IP5PixelS2_EET0_T_S4_S3_, symObjAddr: 0x51D4, symBinAddr: 0x100008768, symSize: 0x40 }
  - { offsetInCU: 0xEF58, offset: 0xEF58, size: 0x8, addend: 0x0, symName: __ZNSt3__16__copyB8ue170006INS_17_ClassicAlgPolicyEP5PixelS3_S3_EENS_4pairIT0_T2_EES5_T1_S6_, symObjAddr: 0x5214, symBinAddr: 0x1000087A8, symSize: 0x44 }
  - { offsetInCU: 0xEFC4, offset: 0xEFC4, size: 0x8, addend: 0x0, symName: __ZNSt3__123__dispatch_copy_or_moveB8ue170006INS_17_ClassicAlgPolicyENS_11__copy_loopIS1_EENS_14__copy_trivialEP5PixelS6_S6_EENS_4pairIT2_T4_EES8_T3_S9_, symObjAddr: 0x5258, symBinAddr: 0x1000087EC, symSize: 0x44 }
  - { offsetInCU: 0xF042, offset: 0xF042, size: 0x8, addend: 0x0, symName: __ZNSt3__121__unwrap_and_dispatchB8ue170006INS_10__overloadINS_11__copy_loopINS_17_ClassicAlgPolicyEEENS_14__copy_trivialEEEP5PixelS8_S8_Li0EEENS_4pairIT0_T2_EESA_T1_SB_, symObjAddr: 0x529C, symBinAddr: 0x100008830, symSize: 0xB4 }
  - { offsetInCU: 0xF152, offset: 0xF152, size: 0x8, addend: 0x0, symName: __ZNSt3__114__rewrap_rangeB8ue170006IP5PixelS2_EET_S3_T0_, symObjAddr: 0x5398, symBinAddr: 0x10000892C, symSize: 0x2C }
  - { offsetInCU: 0xF19E, offset: 0xF19E, size: 0x8, addend: 0x0, symName: __ZNSt3__119__copy_trivial_implB8ue170006I5PixelS1_EENS_4pairIPT_PT0_EES4_S4_S6_, symObjAddr: 0x53C4, symBinAddr: 0x100008958, symSize: 0x88 }
  - { offsetInCU: 0xF206, offset: 0xF206, size: 0x8, addend: 0x0, symName: __ZNSt3__119__constexpr_memmoveB8ue170006I5PixelS1_Li0EEEPT_S3_PT0_NS_15__element_countE, symObjAddr: 0x544C, symBinAddr: 0x1000089E0, symSize: 0x68 }
  - { offsetInCU: 0xF274, offset: 0xF274, size: 0x8, addend: 0x0, symName: __ZNSt3__19make_pairB8ue170006IRP5PixelS2_EENS_4pairINS_18__unwrap_ref_decayIT_E4typeENS5_IT0_E4typeEEEOS6_OS9_, symObjAddr: 0x54B4, symBinAddr: 0x100008A48, symSize: 0x38 }
  - { offsetInCU: 0xF316, offset: 0xF316, size: 0x8, addend: 0x0, symName: __ZNSt3__18distanceB8ue170006IP5PixelEENS_15iterator_traitsIT_E15difference_typeES4_S4_, symObjAddr: 0x5D6C, symBinAddr: 0x100009300, symSize: 0x2C }
  - { offsetInCU: 0xF359, offset: 0xF359, size: 0x8, addend: 0x0, symName: __ZNSt3__14nextB8ue170006IP5PixelEENS_9enable_ifIXsr29__has_input_iterator_categoryIT_EE5valueES4_E4typeES4_NS_15iterator_traitsIS4_E15difference_typeE, symObjAddr: 0x5D98, symBinAddr: 0x10000932C, symSize: 0x34 }
  - { offsetInCU: 0xF39C, offset: 0xF39C, size: 0x8, addend: 0x0, symName: __ZNSt3__121__convert_to_integralB8ue170006El, symObjAddr: 0x5F04, symBinAddr: 0x100009498, symSize: 0x14 }
  - { offsetInCU: 0xF3C8, offset: 0xF3C8, size: 0x8, addend: 0x0, symName: __ZNSt3__19__advanceB8ue170006IP5PixelEEvRT_NS_15iterator_traitsIS3_E15difference_typeENS_26random_access_iterator_tagE, symObjAddr: 0x5F18, symBinAddr: 0x1000094AC, symSize: 0x30 }
  - { offsetInCU: 0xF411, offset: 0xF411, size: 0x8, addend: 0x0, symName: __ZNSt3__13maxB8ue170006ImEERKT_S3_S3_, symObjAddr: 0x5F48, symBinAddr: 0x1000094DC, symSize: 0x2C }
  - { offsetInCU: 0xF454, offset: 0xF454, size: 0x8, addend: 0x0, symName: __ZNSt3__13maxB8ue170006ImNS_6__lessIvvEEEERKT_S5_S5_T0_, symObjAddr: 0x5F74, symBinAddr: 0x100009508, symSize: 0x54 }
  - { offsetInCU: 0xF4AE, offset: 0xF4AE, size: 0x8, addend: 0x0, symName: __ZNSt3__110__distanceB8ue170006IP5PixelEENS_15iterator_traitsIT_E15difference_typeES4_S4_NS_26random_access_iterator_tagE, symObjAddr: 0x5FC8, symBinAddr: 0x10000955C, symSize: 0x28 }
  - { offsetInCU: 0xF4FB, offset: 0xF4FB, size: 0x8, addend: 0x0, symName: __ZNSt3__116__pad_and_outputB8ue170006IcNS_11char_traitsIcEEEENS_19ostreambuf_iteratorIT_T0_EES6_PKS4_S8_S8_RNS_8ios_baseES4_, symObjAddr: 0x622C, symBinAddr: 0x1000097C0, symSize: 0x240 }
  - { offsetInCU: 0xF5CA, offset: 0xF5CA, size: 0x8, addend: 0x0, symName: __ZNSt3__112__to_addressB8ue170006IcEEPT_S2_, symObjAddr: 0x6768, symBinAddr: 0x100009CFC, symSize: 0x14 }
  - { offsetInCU: 0xF632, offset: 0xF632, size: 0x8, addend: 0x0, symName: __ZNSt3__19use_facetB8ue170006INS_5ctypeIcEEEERKT_RKNS_6localeE, symObjAddr: 0x69A8, symBinAddr: 0x100009F3C, symSize: 0x2C }
  - { offsetInCU: 0xFAFF, offset: 0xFAFF, size: 0x8, addend: 0x0, symName: __ZNSt3__118__constexpr_strlenB8ue170006EPKc, symObjAddr: 0x6A0C, symBinAddr: 0x100009FA0, symSize: 0x24 }
  - { offsetInCU: 0xFD17, offset: 0xFD17, size: 0x8, addend: 0x0, symName: __ZNSt3__14copyB8ue170006IPKcPcEET0_T_S5_S4_, symObjAddr: 0x72F8, symBinAddr: 0x10000A88C, symSize: 0x40 }
  - { offsetInCU: 0xFD71, offset: 0xFD71, size: 0x8, addend: 0x0, symName: __ZNSt3__16__copyB8ue170006INS_17_ClassicAlgPolicyEPKcS3_PcEENS_4pairIT0_T2_EES6_T1_S7_, symObjAddr: 0x7338, symBinAddr: 0x10000A8CC, symSize: 0x44 }
  - { offsetInCU: 0xFDDD, offset: 0xFDDD, size: 0x8, addend: 0x0, symName: __ZNSt3__123__dispatch_copy_or_moveB8ue170006INS_17_ClassicAlgPolicyENS_11__copy_loopIS1_EENS_14__copy_trivialEPKcS6_PcEENS_4pairIT2_T4_EES9_T3_SA_, symObjAddr: 0x737C, symBinAddr: 0x10000A910, symSize: 0x44 }
  - { offsetInCU: 0xFE5B, offset: 0xFE5B, size: 0x8, addend: 0x0, symName: __ZNSt3__121__unwrap_and_dispatchB8ue170006INS_10__overloadINS_11__copy_loopINS_17_ClassicAlgPolicyEEENS_14__copy_trivialEEEPKcS8_PcLi0EEENS_4pairIT0_T2_EESB_T1_SC_, symObjAddr: 0x73C0, symBinAddr: 0x10000A954, symSize: 0xB4 }
  - { offsetInCU: 0xFEE9, offset: 0xFEE9, size: 0x8, addend: 0x0, symName: __ZNSt3__114__unwrap_rangeB8ue170006IPKcS2_EENS_4pairIT0_S4_EET_S6_, symObjAddr: 0x7474, symBinAddr: 0x10000AA08, symSize: 0x60 }
  - { offsetInCU: 0x10038, offset: 0x10038, size: 0x8, addend: 0x0, symName: __ZNSt3__113__unwrap_iterB8ue170006IPcNS_18__unwrap_iter_implIS1_Lb1EEELi0EEEDTclsrT0_8__unwrapclsr3stdE7declvalIT_EEEES5_, symObjAddr: 0x751C, symBinAddr: 0x10000AAB0, symSize: 0x24 }
  - { offsetInCU: 0x1007C, offset: 0x1007C, size: 0x8, addend: 0x0, symName: __ZNSt3__19make_pairB8ue170006IPKcPcEENS_4pairINS_18__unwrap_ref_decayIT_E4typeENS5_IT0_E4typeEEEOS6_OS9_, symObjAddr: 0x7540, symBinAddr: 0x10000AAD4, symSize: 0x38 }
  - { offsetInCU: 0x100CB, offset: 0x100CB, size: 0x8, addend: 0x0, symName: __ZNSt3__114__rewrap_rangeB8ue170006IPKcS2_EET_S3_T0_, symObjAddr: 0x7578, symBinAddr: 0x10000AB0C, symSize: 0x2C }
  - { offsetInCU: 0x10117, offset: 0x10117, size: 0x8, addend: 0x0, symName: __ZNSt3__113__rewrap_iterB8ue170006IPcS1_NS_18__unwrap_iter_implIS1_Lb1EEEEET_S4_T0_, symObjAddr: 0x75A4, symBinAddr: 0x10000AB38, symSize: 0x3C }
  - { offsetInCU: 0x1016C, offset: 0x1016C, size: 0x8, addend: 0x0, symName: __ZNSt3__19make_pairB8ue170006IPKcS2_EENS_4pairINS_18__unwrap_ref_decayIT_E4typeENS4_IT0_E4typeEEEOS5_OS8_, symObjAddr: 0x75E0, symBinAddr: 0x10000AB74, symSize: 0x38 }
  - { offsetInCU: 0x101BB, offset: 0x101BB, size: 0x8, addend: 0x0, symName: __ZNSt3__113__unwrap_iterB8ue170006IPKcNS_18__unwrap_iter_implIS2_Lb1EEELi0EEEDTclsrT0_8__unwrapclsr3stdE7declvalIT_EEEES6_, symObjAddr: 0x7618, symBinAddr: 0x10000ABAC, symSize: 0x24 }
  - { offsetInCU: 0x10326, offset: 0x10326, size: 0x8, addend: 0x0, symName: __ZNSt3__119__copy_trivial_implB8ue170006IKccEENS_4pairIPT_PT0_EES4_S4_S6_, symObjAddr: 0x76D0, symBinAddr: 0x10000AC64, symSize: 0x78 }
  - { offsetInCU: 0x1038E, offset: 0x1038E, size: 0x8, addend: 0x0, symName: __ZNSt3__119__constexpr_memmoveB8ue170006IcKcLi0EEEPT_S3_PT0_NS_15__element_countE, symObjAddr: 0x7748, symBinAddr: 0x10000ACDC, symSize: 0x64 }
  - { offsetInCU: 0x103FC, offset: 0x103FC, size: 0x8, addend: 0x0, symName: __ZNSt3__19make_pairB8ue170006IRPKcPcEENS_4pairINS_18__unwrap_ref_decayIT_E4typeENS6_IT0_E4typeEEEOS7_OSA_, symObjAddr: 0x77AC, symBinAddr: 0x10000AD40, symSize: 0x38 }
  - { offsetInCU: 0x1049E, offset: 0x1049E, size: 0x8, addend: 0x0, symName: __ZNSt3__113__rewrap_iterB8ue170006IPKcS2_NS_18__unwrap_iter_implIS2_Lb1EEEEET_S5_T0_, symObjAddr: 0x78E8, symBinAddr: 0x10000AE7C, symSize: 0x3C }
  - { offsetInCU: 0x104F3, offset: 0x104F3, size: 0x8, addend: 0x0, symName: __ZNSt3__16fill_nB8ue170006IPcmcEET_S2_T0_RKT1_, symObjAddr: 0x79B4, symBinAddr: 0x10000AF48, symSize: 0x44 }
  - { offsetInCU: 0x10556, offset: 0x10556, size: 0x8, addend: 0x0, symName: __ZNSt3__18__fill_nB8ue170006IPcmcEET_S2_T0_RKT1_, symObjAddr: 0x79F8, symBinAddr: 0x10000AF8C, symSize: 0x64 }
  - { offsetInCU: 0x105B9, offset: 0x105B9, size: 0x8, addend: 0x0, symName: __ZNSt3__121__convert_to_integralB8ue170006Em, symObjAddr: 0x7A5C, symBinAddr: 0x10000AFF0, symSize: 0x14 }
  - { offsetInCU: 0x10B36, offset: 0x10B36, size: 0x8, addend: 0x0, symName: __ZSt28__throw_bad_array_new_lengthB8ue170006v, symObjAddr: 0x3E04, symBinAddr: 0x100007398, symSize: 0x34 }
  - { offsetInCU: 0x1392B, offset: 0x1392B, size: 0x8, addend: 0x0, symName: __Z5part1v, symObjAddr: 0x0, symBinAddr: 0x100003594, symSize: 0x2EC }
  - { offsetInCU: 0x139C3, offset: 0x139C3, size: 0x8, addend: 0x0, symName: __ZNSt3__112basic_stringIcNS_11char_traitsIcEENS_9allocatorIcEEEC1B8ue170006ILi0EEEPKc, symObjAddr: 0x2EC, symBinAddr: 0x100003880, symSize: 0x34 }
  - { offsetInCU: 0x13EA6, offset: 0x13EA6, size: 0x8, addend: 0x0, symName: __ZN8ImageTGAC1ENSt3__112basic_stringIcNS0_11char_traitsIcEENS0_9allocatorIcEEEE, symObjAddr: 0x43C, symBinAddr: 0x1000039D0, symSize: 0x34 }
  - { offsetInCU: 0x13EDF, offset: 0x13EDF, size: 0x8, addend: 0x0, symName: __ZN8ImageTGAC1Ev, symObjAddr: 0x470, symBinAddr: 0x100003A04, symSize: 0x2C }
  - { offsetInCU: 0x13F09, offset: 0x13F09, size: 0x8, addend: 0x0, symName: __ZN8ImageTGA8multiplyERS_, symObjAddr: 0x49C, symBinAddr: 0x100003A30, symSize: 0xF8 }
  - { offsetInCU: 0x13F5E, offset: 0x13F5E, size: 0x8, addend: 0x0, symName: __ZN8ImageTGAaSEOS_, symObjAddr: 0x594, symBinAddr: 0x100003B28, symSize: 0x5C }
  - { offsetInCU: 0x13F8F, offset: 0x13F8F, size: 0x8, addend: 0x0, symName: __ZN8ImageTGAD1Ev, symObjAddr: 0x5F0, symBinAddr: 0x100003B84, symSize: 0x2C }
  - { offsetInCU: 0x13FBB, offset: 0x13FBB, size: 0x8, addend: 0x0, symName: __ZNSt3__114basic_ofstreamIcNS_11char_traitsIcEEEC1ERKNS_12basic_stringIcS2_NS_9allocatorIcEEEEj, symObjAddr: 0x61C, symBinAddr: 0x100003BB0, symSize: 0x16C }
  - { offsetInCU: 0x14005, offset: 0x14005, size: 0x8, addend: 0x0, symName: __ZN8ImageTGA5writeERNSt3__114basic_ofstreamIcNS0_11char_traitsIcEEEE, symObjAddr: 0x788, symBinAddr: 0x100003D1C, symSize: 0x9C }
  - { offsetInCU: 0x14039, offset: 0x14039, size: 0x8, addend: 0x0, symName: __ZNSt3__113basic_ostreamIcNS_11char_traitsIcEEElsB8ue170006EPFRS3_S4_E, symObjAddr: 0x8B8, symBinAddr: 0x100003E4C, symSize: 0x2C }
  - { offsetInCU: 0x14072, offset: 0x14072, size: 0x8, addend: 0x0, symName: __ZNSt3__114basic_ofstreamIcNS_11char_traitsIcEEED1Ev, symObjAddr: 0x93C, symBinAddr: 0x100003ED0, symSize: 0x40 }
  - { offsetInCU: 0x1409E, offset: 0x1409E, size: 0x8, addend: 0x0, symName: __Z5part2v, symObjAddr: 0x97C, symBinAddr: 0x100003F10, symSize: 0x290 }
  - { offsetInCU: 0x1411F, offset: 0x1411F, size: 0x8, addend: 0x0, symName: __ZN8ImageTGA8subtractERS_, symObjAddr: 0xC0C, symBinAddr: 0x1000041A0, symSize: 0xF8 }
  - { offsetInCU: 0x1416F, offset: 0x1416F, size: 0x8, addend: 0x0, symName: __ZN8ImageTGA5writeENSt3__112basic_stringIcNS0_11char_traitsIcEENS0_9allocatorIcEEEE, symObjAddr: 0xD04, symBinAddr: 0x100004298, symSize: 0xBC }
  - { offsetInCU: 0x141B1, offset: 0x141B1, size: 0x8, addend: 0x0, symName: __Z5part3v, symObjAddr: 0xDC0, symBinAddr: 0x100004354, symSize: 0x25C }
  - { offsetInCU: 0x14216, offset: 0x14216, size: 0x8, addend: 0x0, symName: __ZN8ImageTGA6screenERS_, symObjAddr: 0x101C, symBinAddr: 0x1000045B0, symSize: 0xF8 }
  - { offsetInCU: 0x14265, offset: 0x14265, size: 0x8, addend: 0x0, symName: __Z5part4v, symObjAddr: 0x1114, symBinAddr: 0x1000046A8, symSize: 0x25C }
  - { offsetInCU: 0x142C9, offset: 0x142C9, size: 0x8, addend: 0x0, symName: __Z5part5v, symObjAddr: 0x1370, symBinAddr: 0x100004904, symSize: 0x1BC }
  - { offsetInCU: 0x14310, offset: 0x14310, size: 0x8, addend: 0x0, symName: __ZN8ImageTGA7overlayERS_, symObjAddr: 0x152C, symBinAddr: 0x100004AC0, symSize: 0xF8 }
  - { offsetInCU: 0x1435F, offset: 0x1435F, size: 0x8, addend: 0x0, symName: __Z5part6v, symObjAddr: 0x1624, symBinAddr: 0x100004BB8, symSize: 0x168 }
  - { offsetInCU: 0x14397, offset: 0x14397, size: 0x8, addend: 0x0, symName: __ZN8ImageTGA3addE5Pixel, symObjAddr: 0x178C, symBinAddr: 0x100004D20, symSize: 0xEC }
  - { offsetInCU: 0x143E6, offset: 0x143E6, size: 0x8, addend: 0x0, symName: __Z5part7v, symObjAddr: 0x1878, symBinAddr: 0x100004E0C, symSize: 0x138 }
  - { offsetInCU: 0x1440F, offset: 0x1440F, size: 0x8, addend: 0x0, symName: __ZN8ImageTGA5scaleEiii, symObjAddr: 0x19B0, symBinAddr: 0x100004F44, symSize: 0xAC }
  - { offsetInCU: 0x1447A, offset: 0x1447A, size: 0x8, addend: 0x0, symName: __Z5part8v, symObjAddr: 0x1A5C, symBinAddr: 0x100004FF0, symSize: 0x2D0 }
  - { offsetInCU: 0x144D1, offset: 0x144D1, size: 0x8, addend: 0x0, symName: __ZN8ImageTGA13getRedChannelEv, symObjAddr: 0x1D2C, symBinAddr: 0x1000052C0, symSize: 0x1D4 }
  - { offsetInCU: 0x14522, offset: 0x14522, size: 0x8, addend: 0x0, symName: __ZN8ImageTGA15getGreenChannelEv, symObjAddr: 0x1F00, symBinAddr: 0x100005494, symSize: 0x1D4 }
  - { offsetInCU: 0x14573, offset: 0x14573, size: 0x8, addend: 0x0, symName: __ZN8ImageTGA14getBlueChannelEv, symObjAddr: 0x20D4, symBinAddr: 0x100005668, symSize: 0x1D4 }
  - { offsetInCU: 0x145C3, offset: 0x145C3, size: 0x8, addend: 0x0, symName: __Z5part9v, symObjAddr: 0x22A8, symBinAddr: 0x10000583C, symSize: 0x240 }
  - { offsetInCU: 0x14623, offset: 0x14623, size: 0x8, addend: 0x0, symName: __ZN8ImageTGAC1ERKS_, symObjAddr: 0x24E8, symBinAddr: 0x100005A7C, symSize: 0x34 }
  - { offsetInCU: 0x14658, offset: 0x14658, size: 0x8, addend: 0x0, symName: __ZN8ImageTGA15setGreenChannelERS_, symObjAddr: 0x251C, symBinAddr: 0x100005AB0, symSize: 0xA4 }
  - { offsetInCU: 0x146A8, offset: 0x146A8, size: 0x8, addend: 0x0, symName: __ZN8ImageTGA14setBlueChannelERS_, symObjAddr: 0x25C0, symBinAddr: 0x100005B54, symSize: 0xA4 }
  - { offsetInCU: 0x146F7, offset: 0x146F7, size: 0x8, addend: 0x0, symName: __Z6part10v, symObjAddr: 0x2664, symBinAddr: 0x100005BF8, symSize: 0x120 }
  - { offsetInCU: 0x14720, offset: 0x14720, size: 0x8, addend: 0x0, symName: __ZN8ImageTGA16rotate180DegreesEv, symObjAddr: 0x2784, symBinAddr: 0x100005D18, symSize: 0x104 }
  - { offsetInCU: 0x14770, offset: 0x14770, size: 0x8, addend: 0x0, symName: __Z5testsv, symObjAddr: 0x2888, symBinAddr: 0x100005E1C, symSize: 0x4 }
  - { offsetInCU: 0x1478A, offset: 0x1478A, size: 0x8, addend: 0x0, symName: _main, symObjAddr: 0x288C, symBinAddr: 0x100005E20, symSize: 0x180 }
  - { offsetInCU: 0x147A4, offset: 0x147A4, size: 0x8, addend: 0x0, symName: __ZN8ImageTGAC2ENSt3__112basic_stringIcNS0_11char_traitsIcEENS0_9allocatorIcEEEE, symObjAddr: 0x2A0C, symBinAddr: 0x100005FA0, symSize: 0xA0 }
  - { offsetInCU: 0x147DD, offset: 0x147DD, size: 0x8, addend: 0x0, symName: __ZNSt3__16vectorI5PixelNS_9allocatorIS1_EEEC1B8ue170006Ev, symObjAddr: 0x2AAC, symBinAddr: 0x100006040, symSize: 0x2C }
  - { offsetInCU: 0x14807, offset: 0x14807, size: 0x8, addend: 0x0, symName: __ZN8ImageTGA4readENSt3__112basic_stringIcNS0_11char_traitsIcEENS0_9allocatorIcEEEE, symObjAddr: 0x2AD8, symBinAddr: 0x10000606C, symSize: 0xBC }
  - { offsetInCU: 0x1484A, offset: 0x1484A, size: 0x8, addend: 0x0, symName: __ZNSt3__16vectorI5PixelNS_9allocatorIS1_EEED1B8ue170006Ev, symObjAddr: 0x2B94, symBinAddr: 0x100006128, symSize: 0x2C }
  - { offsetInCU: 0x14874, offset: 0x14874, size: 0x8, addend: 0x0, symName: __ZNSt3__16vectorI5PixelNS_9allocatorIS1_EEEC2B8ue170006Ev, symObjAddr: 0x2BC0, symBinAddr: 0x100006154, symSize: 0x4C }
  - { offsetInCU: 0x148A8, offset: 0x148A8, size: 0x8, addend: 0x0, symName: __ZNSt3__117__compressed_pairIP5PixelNS_9allocatorIS1_EEEC1B8ue170006IDnNS_18__default_init_tagEEEOT_OT0_, symObjAddr: 0x2C0C, symBinAddr: 0x1000061A0, symSize: 0x3C }
  - { offsetInCU: 0x14900, offset: 0x14900, size: 0x8, addend: 0x0, symName: __ZNSt3__117__compressed_pairIP5PixelNS_9allocatorIS1_EEEC2B8ue170006IDnNS_18__default_init_tagEEEOT_OT0_, symObjAddr: 0x2C54, symBinAddr: 0x1000061E8, symSize: 0x40 }
  - { offsetInCU: 0x14958, offset: 0x14958, size: 0x8, addend: 0x0, symName: __ZNSt3__122__compressed_pair_elemIP5PixelLi0ELb0EEC2B8ue170006IDnvEEOT_, symObjAddr: 0x2C94, symBinAddr: 0x100006228, symSize: 0x1C }
  - { offsetInCU: 0x1499A, offset: 0x1499A, size: 0x8, addend: 0x0, symName: __ZNSt3__122__compressed_pair_elemINS_9allocatorI5PixelEELi1ELb1EEC2B8ue170006ENS_18__default_init_tagE, symObjAddr: 0x2CB0, symBinAddr: 0x100006244, symSize: 0x2C }
  - { offsetInCU: 0x149CE, offset: 0x149CE, size: 0x8, addend: 0x0, symName: __ZNSt3__19allocatorI5PixelEC2B8ue170006Ev, symObjAddr: 0x2CDC, symBinAddr: 0x100006270, symSize: 0x2C }
  - { offsetInCU: 0x149F8, offset: 0x149F8, size: 0x8, addend: 0x0, symName: __ZNSt3__116__non_trivial_ifILb1ENS_9allocatorI5PixelEEEC2B8ue170006Ev, symObjAddr: 0x2D08, symBinAddr: 0x10000629C, symSize: 0x14 }
  - { offsetInCU: 0x14A22, offset: 0x14A22, size: 0x8, addend: 0x0, symName: __ZNSt3__114basic_ifstreamIcNS_11char_traitsIcEEEC1ERKNS_12basic_stringIcS2_NS_9allocatorIcEEEEj, symObjAddr: 0x2D1C, symBinAddr: 0x1000062B0, symSize: 0x16C }
  - { offsetInCU: 0x14A6C, offset: 0x14A6C, size: 0x8, addend: 0x0, symName: __ZN8ImageTGA4readERNSt3__114basic_ifstreamIcNS0_11char_traitsIcEEEE, symObjAddr: 0x2E88, symBinAddr: 0x10000641C, symSize: 0x90 }
  - { offsetInCU: 0x14AA0, offset: 0x14AA0, size: 0x8, addend: 0x0, symName: __ZNSt3__114basic_ifstreamIcNS_11char_traitsIcEEE5closeEv, symObjAddr: 0x2F18, symBinAddr: 0x1000064AC, symSize: 0x58 }
  - { offsetInCU: 0x14ACD, offset: 0x14ACD, size: 0x8, addend: 0x0, symName: __ZNSt3__114basic_ifstreamIcNS_11char_traitsIcEEED1Ev, symObjAddr: 0x2F70, symBinAddr: 0x100006504, symSize: 0x40 }
  - { offsetInCU: 0x14AFA, offset: 0x14AFA, size: 0x8, addend: 0x0, symName: __ZNSt3__19basic_iosIcNS_11char_traitsIcEEEC2B8ue170006Ev, symObjAddr: 0x2FB0, symBinAddr: 0x100006544, symSize: 0x44 }
  - { offsetInCU: 0x14B24, offset: 0x14B24, size: 0x8, addend: 0x0, symName: __ZNSt3__113basic_istreamIcNS_11char_traitsIcEEEC2B8ue170006EPNS_15basic_streambufIcS2_EE, symObjAddr: 0x2FF4, symBinAddr: 0x100006588, symSize: 0x64 }
  - { offsetInCU: 0x14B69, offset: 0x14B69, size: 0x8, addend: 0x0, symName: __ZNSt3__113basic_filebufIcNS_11char_traitsIcEEE4openERKNS_12basic_stringIcS2_NS_9allocatorIcEEEEj, symObjAddr: 0x3058, symBinAddr: 0x1000065EC, symSize: 0x44 }
  - { offsetInCU: 0x14BAD, offset: 0x14BAD, size: 0x8, addend: 0x0, symName: __ZNSt3__19basic_iosIcNS_11char_traitsIcEEE8setstateB8ue170006Ej, symObjAddr: 0x309C, symBinAddr: 0x100006630, symSize: 0x2C }
  - { offsetInCU: 0x14BE2, offset: 0x14BE2, size: 0x8, addend: 0x0, symName: __ZNSt3__18ios_baseC2B8ue170006Ev, symObjAddr: 0x30C8, symBinAddr: 0x10000665C, symSize: 0x24 }
  - { offsetInCU: 0x14C0C, offset: 0x14C0C, size: 0x8, addend: 0x0, symName: __ZNSt3__19basic_iosIcNS_11char_traitsIcEEE4initB8ue170006EPNS_15basic_streambufIcS2_EE, symObjAddr: 0x30EC, symBinAddr: 0x100006680, symSize: 0x44 }
  - { offsetInCU: 0x14C43, offset: 0x14C43, size: 0x8, addend: 0x0, symName: __ZNSt3__111char_traitsIcE3eofB8ue170006Ev, symObjAddr: 0x3130, symBinAddr: 0x1000066C4, symSize: 0x8 }
  - { offsetInCU: 0x14C57, offset: 0x14C57, size: 0x8, addend: 0x0, symName: __ZNKSt3__112basic_stringIcNS_11char_traitsIcEENS_9allocatorIcEEE5c_strB8ue170006Ev, symObjAddr: 0x3138, symBinAddr: 0x1000066CC, symSize: 0x24 }
  - { offsetInCU: 0x14C7D, offset: 0x14C7D, size: 0x8, addend: 0x0, symName: __ZNKSt3__112basic_stringIcNS_11char_traitsIcEENS_9allocatorIcEEE4dataB8ue170006Ev, symObjAddr: 0x315C, symBinAddr: 0x1000066F0, symSize: 0x28 }
  - { offsetInCU: 0x14CA3, offset: 0x14CA3, size: 0x8, addend: 0x0, symName: __ZNKSt3__112basic_stringIcNS_11char_traitsIcEENS_9allocatorIcEEE13__get_pointerB8ue170006Ev, symObjAddr: 0x3198, symBinAddr: 0x10000672C, symSize: 0x54 }
  - { offsetInCU: 0x14CC9, offset: 0x14CC9, size: 0x8, addend: 0x0, symName: __ZNKSt3__112basic_stringIcNS_11char_traitsIcEENS_9allocatorIcEEE9__is_longB8ue170006Ev, symObjAddr: 0x31EC, symBinAddr: 0x100006780, symSize: 0x38 }
  - { offsetInCU: 0x14CEF, offset: 0x14CEF, size: 0x8, addend: 0x0, symName: __ZNKSt3__112basic_stringIcNS_11char_traitsIcEENS_9allocatorIcEEE18__get_long_pointerB8ue170006Ev, symObjAddr: 0x3224, symBinAddr: 0x1000067B8, symSize: 0x28 }
  - { offsetInCU: 0x14D15, offset: 0x14D15, size: 0x8, addend: 0x0, symName: __ZNKSt3__112basic_stringIcNS_11char_traitsIcEENS_9allocatorIcEEE19__get_short_pointerB8ue170006Ev, symObjAddr: 0x324C, symBinAddr: 0x1000067E0, symSize: 0x28 }
  - { offsetInCU: 0x14D3B, offset: 0x14D3B, size: 0x8, addend: 0x0, symName: __ZNKSt3__117__compressed_pairINS_12basic_stringIcNS_11char_traitsIcEENS_9allocatorIcEEE5__repES5_E5firstB8ue170006Ev, symObjAddr: 0x3274, symBinAddr: 0x100006808, symSize: 0x24 }
  - { offsetInCU: 0x14D61, offset: 0x14D61, size: 0x8, addend: 0x0, symName: __ZNKSt3__122__compressed_pair_elemINS_12basic_stringIcNS_11char_traitsIcEENS_9allocatorIcEEE5__repELi0ELb0EE5__getB8ue170006Ev, symObjAddr: 0x3298, symBinAddr: 0x10000682C, symSize: 0x14 }
  - { offsetInCU: 0x14D87, offset: 0x14D87, size: 0x8, addend: 0x0, symName: __ZNSt3__114pointer_traitsIPKcE10pointer_toB8ue170006ERS1_, symObjAddr: 0x32AC, symBinAddr: 0x100006840, symSize: 0x14 }
  - { offsetInCU: 0x14DAA, offset: 0x14DAA, size: 0x8, addend: 0x0, symName: __ZNSt3__18ios_base8setstateB8ue170006Ej, symObjAddr: 0x32C0, symBinAddr: 0x100006854, symSize: 0x34 }
  - { offsetInCU: 0x14DE1, offset: 0x14DE1, size: 0x8, addend: 0x0, symName: __ZN8ImageTGA10readHeaderERNSt3__114basic_ifstreamIcNS0_11char_traitsIcEEEE, symObjAddr: 0x32F4, symBinAddr: 0x100006888, symSize: 0x11C }
  - { offsetInCU: 0x14E25, offset: 0x14E25, size: 0x8, addend: 0x0, symName: __ZN8ImageTGA8readDataERNSt3__114basic_ifstreamIcNS0_11char_traitsIcEEEERsS6_, symObjAddr: 0x3410, symBinAddr: 0x1000069A4, symSize: 0x160 }
  - { offsetInCU: 0x14EB4, offset: 0x14EB4, size: 0x8, addend: 0x0, symName: __ZNSt3__16vectorI5PixelNS_9allocatorIS1_EEEaSB8ue170006EOS4_, symObjAddr: 0x3570, symBinAddr: 0x100006B04, symSize: 0x34 }
  - { offsetInCU: 0x14EEB, offset: 0x14EEB, size: 0x8, addend: 0x0, symName: __ZNSt3__16vectorI5PixelNS_9allocatorIS1_EEEC1Em, symObjAddr: 0x35A4, symBinAddr: 0x100006B38, symSize: 0x34 }
  - { offsetInCU: 0x14F26, offset: 0x14F26, size: 0x8, addend: 0x0, symName: __ZNSt3__16vectorI5PixelNS_9allocatorIS1_EEEixB8ue170006Em, symObjAddr: 0x35D8, symBinAddr: 0x100006B6C, symSize: 0x2C }
  - { offsetInCU: 0x14F5D, offset: 0x14F5D, size: 0x8, addend: 0x0, symName: __ZNSt3__16vectorI5PixelNS_9allocatorIS1_EEEC2Em, symObjAddr: 0x3604, symBinAddr: 0x100006B98, symSize: 0xD4 }
  - { offsetInCU: 0x14FAD, offset: 0x14FAD, size: 0x8, addend: 0x0, symName: __ZNSt3__16vectorI5PixelNS_9allocatorIS1_EEE16__destroy_vectorC1B8ue170006ERS4_, symObjAddr: 0x3718, symBinAddr: 0x100006CAC, symSize: 0x34 }
  - { offsetInCU: 0x14FE6, offset: 0x14FE6, size: 0x8, addend: 0x0, symName: __ZNSt3__16vectorI5PixelNS_9allocatorIS1_EEE11__vallocateB8ue170006Em, symObjAddr: 0x374C, symBinAddr: 0x100006CE0, symSize: 0xB4 }
  - { offsetInCU: 0x1502A, offset: 0x1502A, size: 0x8, addend: 0x0, symName: __ZNSt3__16vectorI5PixelNS_9allocatorIS1_EEE18__construct_at_endEm, symObjAddr: 0x3800, symBinAddr: 0x100006D94, symSize: 0xC8 }
  - { offsetInCU: 0x1509C, offset: 0x1509C, size: 0x8, addend: 0x0, symName: __ZNSt3__128__exception_guard_exceptionsINS_6vectorI5PixelNS_9allocatorIS2_EEE16__destroy_vectorEE10__completeB8ue170006Ev, symObjAddr: 0x38C8, symBinAddr: 0x100006E5C, symSize: 0x1C }
  - { offsetInCU: 0x150C2, offset: 0x150C2, size: 0x8, addend: 0x0, symName: __ZNSt3__128__exception_guard_exceptionsINS_6vectorI5PixelNS_9allocatorIS2_EEE16__destroy_vectorEED1B8ue170006Ev, symObjAddr: 0x38E4, symBinAddr: 0x100006E78, symSize: 0x2C }
  - { offsetInCU: 0x150EC, offset: 0x150EC, size: 0x8, addend: 0x0, symName: __ZNSt3__128__exception_guard_exceptionsINS_6vectorI5PixelNS_9allocatorIS2_EEE16__destroy_vectorEEC1B8ue170006ES6_, symObjAddr: 0x3910, symBinAddr: 0x100006EA4, symSize: 0x34 }
  - { offsetInCU: 0x15124, offset: 0x15124, size: 0x8, addend: 0x0, symName: __ZNSt3__128__exception_guard_exceptionsINS_6vectorI5PixelNS_9allocatorIS2_EEE16__destroy_vectorEEC2B8ue170006ES6_, symObjAddr: 0x3944, symBinAddr: 0x100006ED8, symSize: 0x24 }
  - { offsetInCU: 0x1515C, offset: 0x1515C, size: 0x8, addend: 0x0, symName: __ZNSt3__16vectorI5PixelNS_9allocatorIS1_EEE16__destroy_vectorC2B8ue170006ERS4_, symObjAddr: 0x3968, symBinAddr: 0x100006EFC, symSize: 0x20 }
  - { offsetInCU: 0x15195, offset: 0x15195, size: 0x8, addend: 0x0, symName: __ZNKSt3__16vectorI5PixelNS_9allocatorIS1_EEE8max_sizeEv, symObjAddr: 0x3988, symBinAddr: 0x100006F1C, symSize: 0x60 }
  - { offsetInCU: 0x151BD, offset: 0x151BD, size: 0x8, addend: 0x0, symName: __ZNKSt3__16vectorI5PixelNS_9allocatorIS1_EEE20__throw_length_errorB8ue170006Ev, symObjAddr: 0x39E8, symBinAddr: 0x100006F7C, symSize: 0x1C }
  - { offsetInCU: 0x151E3, offset: 0x151E3, size: 0x8, addend: 0x0, symName: __ZNSt3__16vectorI5PixelNS_9allocatorIS1_EEE7__allocB8ue170006Ev, symObjAddr: 0x3A44, symBinAddr: 0x100006FD8, symSize: 0x28 }
  - { offsetInCU: 0x15209, offset: 0x15209, size: 0x8, addend: 0x0, symName: __ZNSt3__16vectorI5PixelNS_9allocatorIS1_EEE9__end_capB8ue170006Ev, symObjAddr: 0x3A6C, symBinAddr: 0x100007000, symSize: 0x28 }
  - { offsetInCU: 0x1522F, offset: 0x1522F, size: 0x8, addend: 0x0, symName: __ZNKSt3__16vectorI5PixelNS_9allocatorIS1_EEE14__annotate_newB8ue170006Em, symObjAddr: 0x3A94, symBinAddr: 0x100007028, symSize: 0xC8 }
  - { offsetInCU: 0x1526E, offset: 0x1526E, size: 0x8, addend: 0x0, symName: __ZNSt3__116allocator_traitsINS_9allocatorI5PixelEEE8max_sizeB8ue170006IS3_vEEmRKS3_, symObjAddr: 0x3B88, symBinAddr: 0x10000711C, symSize: 0x24 }
  - { offsetInCU: 0x1529C, offset: 0x1529C, size: 0x8, addend: 0x0, symName: __ZNKSt3__16vectorI5PixelNS_9allocatorIS1_EEE7__allocB8ue170006Ev, symObjAddr: 0x3BAC, symBinAddr: 0x100007140, symSize: 0x28 }
  - { offsetInCU: 0x152C2, offset: 0x152C2, size: 0x8, addend: 0x0, symName: __ZNSt3__114numeric_limitsIlE3maxB8ue170006Ev, symObjAddr: 0x3BD4, symBinAddr: 0x100007168, symSize: 0x14 }
  - { offsetInCU: 0x152EA, offset: 0x152EA, size: 0x8, addend: 0x0, symName: __ZNKSt3__16__lessIvvEclB8ue170006ImmEEbRKT_RKT0_, symObjAddr: 0x3C3C, symBinAddr: 0x1000071D0, symSize: 0x34 }
  - { offsetInCU: 0x1533E, offset: 0x1533E, size: 0x8, addend: 0x0, symName: __ZNKSt3__19allocatorI5PixelE8max_sizeB8ue170006Ev, symObjAddr: 0x3C70, symBinAddr: 0x100007204, symSize: 0x14 }
  - { offsetInCU: 0x15364, offset: 0x15364, size: 0x8, addend: 0x0, symName: __ZNKSt3__117__compressed_pairIP5PixelNS_9allocatorIS1_EEE6secondB8ue170006Ev, symObjAddr: 0x3C84, symBinAddr: 0x100007218, symSize: 0x24 }
  - { offsetInCU: 0x1538A, offset: 0x1538A, size: 0x8, addend: 0x0, symName: __ZNKSt3__122__compressed_pair_elemINS_9allocatorI5PixelEELi1ELb1EE5__getB8ue170006Ev, symObjAddr: 0x3CA8, symBinAddr: 0x10000723C, symSize: 0x14 }
  - { offsetInCU: 0x153B0, offset: 0x153B0, size: 0x8, addend: 0x0, symName: __ZNSt3__123__libcpp_numeric_limitsIlLb1EE3maxB8ue170006Ev, symObjAddr: 0x3CBC, symBinAddr: 0x100007250, symSize: 0x8 }
  - { offsetInCU: 0x153C4, offset: 0x153C4, size: 0x8, addend: 0x0, symName: __ZNSt12length_errorC1B8ue170006EPKc, symObjAddr: 0x3D28, symBinAddr: 0x1000072BC, symSize: 0x34 }
  - { offsetInCU: 0x153FC, offset: 0x153FC, size: 0x8, addend: 0x0, symName: __ZNSt12length_errorC2B8ue170006EPKc, symObjAddr: 0x3D5C, symBinAddr: 0x1000072F0, symSize: 0x4C }
  - { offsetInCU: 0x15434, offset: 0x15434, size: 0x8, addend: 0x0, symName: __ZNSt3__19allocatorI5PixelE8allocateB8ue170006Em, symObjAddr: 0x3DA8, symBinAddr: 0x10000733C, symSize: 0x5C }
  - { offsetInCU: 0x15468, offset: 0x15468, size: 0x8, addend: 0x0, symName: __ZNSt3__117__compressed_pairIP5PixelNS_9allocatorIS1_EEE6secondB8ue170006Ev, symObjAddr: 0x3F08, symBinAddr: 0x10000749C, symSize: 0x24 }
  - { offsetInCU: 0x1548E, offset: 0x1548E, size: 0x8, addend: 0x0, symName: __ZNSt3__122__compressed_pair_elemINS_9allocatorI5PixelEELi1ELb1EE5__getB8ue170006Ev, symObjAddr: 0x3F2C, symBinAddr: 0x1000074C0, symSize: 0x14 }
  - { offsetInCU: 0x154B4, offset: 0x154B4, size: 0x8, addend: 0x0, symName: __ZNSt3__117__compressed_pairIP5PixelNS_9allocatorIS1_EEE5firstB8ue170006Ev, symObjAddr: 0x3F40, symBinAddr: 0x1000074D4, symSize: 0x24 }
  - { offsetInCU: 0x154DA, offset: 0x154DA, size: 0x8, addend: 0x0, symName: __ZNSt3__122__compressed_pair_elemIP5PixelLi0ELb0EE5__getB8ue170006Ev, symObjAddr: 0x3F64, symBinAddr: 0x1000074F8, symSize: 0x14 }
  - { offsetInCU: 0x15500, offset: 0x15500, size: 0x8, addend: 0x0, symName: __ZNKSt3__16vectorI5PixelNS_9allocatorIS1_EEE31__annotate_contiguous_containerB8ue170006EPKvS6_S6_S6_, symObjAddr: 0x3F78, symBinAddr: 0x10000750C, symSize: 0x20 }
  - { offsetInCU: 0x15552, offset: 0x15552, size: 0x8, addend: 0x0, symName: __ZNKSt3__16vectorI5PixelNS_9allocatorIS1_EEE4dataB8ue170006Ev, symObjAddr: 0x3F98, symBinAddr: 0x10000752C, symSize: 0x28 }
  - { offsetInCU: 0x15578, offset: 0x15578, size: 0x8, addend: 0x0, symName: __ZNKSt3__16vectorI5PixelNS_9allocatorIS1_EEE8capacityB8ue170006Ev, symObjAddr: 0x3FC0, symBinAddr: 0x100007554, symSize: 0x40 }
  - { offsetInCU: 0x1559E, offset: 0x1559E, size: 0x8, addend: 0x0, symName: __ZNKSt3__16vectorI5PixelNS_9allocatorIS1_EEE9__end_capB8ue170006Ev, symObjAddr: 0x4014, symBinAddr: 0x1000075A8, symSize: 0x28 }
  - { offsetInCU: 0x155C4, offset: 0x155C4, size: 0x8, addend: 0x0, symName: __ZNKSt3__117__compressed_pairIP5PixelNS_9allocatorIS1_EEE5firstB8ue170006Ev, symObjAddr: 0x403C, symBinAddr: 0x1000075D0, symSize: 0x24 }
  - { offsetInCU: 0x155EA, offset: 0x155EA, size: 0x8, addend: 0x0, symName: __ZNKSt3__122__compressed_pair_elemIP5PixelLi0ELb0EE5__getB8ue170006Ev, symObjAddr: 0x4060, symBinAddr: 0x1000075F4, symSize: 0x14 }
  - { offsetInCU: 0x15629, offset: 0x15629, size: 0x8, addend: 0x0, symName: __ZNSt3__16vectorI5PixelNS_9allocatorIS1_EEE21_ConstructTransactionC1B8ue170006ERS4_m, symObjAddr: 0x4074, symBinAddr: 0x100007608, symSize: 0x3C }
  - { offsetInCU: 0x15671, offset: 0x15671, size: 0x8, addend: 0x0, symName: __ZNSt3__116allocator_traitsINS_9allocatorI5PixelEEE9constructB8ue170006IS2_JEvEEvRS3_PT_DpOT0_, symObjAddr: 0x40B0, symBinAddr: 0x100007644, symSize: 0x2C }
  - { offsetInCU: 0x156B3, offset: 0x156B3, size: 0x8, addend: 0x0, symName: __ZNSt3__16vectorI5PixelNS_9allocatorIS1_EEE21_ConstructTransactionD1B8ue170006Ev, symObjAddr: 0x40DC, symBinAddr: 0x100007670, symSize: 0x2C }
  - { offsetInCU: 0x156DD, offset: 0x156DD, size: 0x8, addend: 0x0, symName: __ZNSt3__16vectorI5PixelNS_9allocatorIS1_EEE21_ConstructTransactionC2B8ue170006ERS4_m, symObjAddr: 0x4108, symBinAddr: 0x10000769C, symSize: 0x4C }
  - { offsetInCU: 0x15725, offset: 0x15725, size: 0x8, addend: 0x0, symName: __ZNSt3__19allocatorI5PixelE9constructB8ue170006IS1_JEEEvPT_DpOT0_, symObjAddr: 0x4154, symBinAddr: 0x1000076E8, symSize: 0x20 }
  - { offsetInCU: 0x15767, offset: 0x15767, size: 0x8, addend: 0x0, symName: __ZNSt3__16vectorI5PixelNS_9allocatorIS1_EEE21_ConstructTransactionD2B8ue170006Ev, symObjAddr: 0x4174, symBinAddr: 0x100007708, symSize: 0x20 }
  - { offsetInCU: 0x15791, offset: 0x15791, size: 0x8, addend: 0x0, symName: __ZNSt3__128__exception_guard_exceptionsINS_6vectorI5PixelNS_9allocatorIS2_EEE16__destroy_vectorEED2B8ue170006Ev, symObjAddr: 0x4194, symBinAddr: 0x100007728, symSize: 0x50 }
  - { offsetInCU: 0x157BB, offset: 0x157BB, size: 0x8, addend: 0x0, symName: __ZNSt3__16vectorI5PixelNS_9allocatorIS1_EEE16__destroy_vectorclB8ue170006Ev, symObjAddr: 0x41E4, symBinAddr: 0x100007778, symSize: 0x90 }
  - { offsetInCU: 0x157E1, offset: 0x157E1, size: 0x8, addend: 0x0, symName: __ZNSt3__16vectorI5PixelNS_9allocatorIS1_EEE7__clearB8ue170006Ev, symObjAddr: 0x4274, symBinAddr: 0x100007808, symSize: 0x28 }
  - { offsetInCU: 0x15807, offset: 0x15807, size: 0x8, addend: 0x0, symName: __ZNKSt3__16vectorI5PixelNS_9allocatorIS1_EEE17__annotate_deleteB8ue170006Ev, symObjAddr: 0x429C, symBinAddr: 0x100007830, symSize: 0xD4 }
  - { offsetInCU: 0x1582D, offset: 0x1582D, size: 0x8, addend: 0x0, symName: __ZNSt3__116allocator_traitsINS_9allocatorI5PixelEEE10deallocateB8ue170006ERS3_PS2_m, symObjAddr: 0x4370, symBinAddr: 0x100007904, symSize: 0x34 }
  - { offsetInCU: 0x1586F, offset: 0x1586F, size: 0x8, addend: 0x0, symName: __ZNSt3__16vectorI5PixelNS_9allocatorIS1_EEE22__base_destruct_at_endB8ue170006EPS1_, symObjAddr: 0x43A4, symBinAddr: 0x100007938, symSize: 0x8C }
  - { offsetInCU: 0x158B3, offset: 0x158B3, size: 0x8, addend: 0x0, symName: __ZNSt3__116allocator_traitsINS_9allocatorI5PixelEEE7destroyB8ue170006IS2_vEEvRS3_PT_, symObjAddr: 0x4430, symBinAddr: 0x1000079C4, symSize: 0x2C }
  - { offsetInCU: 0x158F0, offset: 0x158F0, size: 0x8, addend: 0x0, symName: __ZNSt3__19allocatorI5PixelE7destroyB8ue170006EPS1_, symObjAddr: 0x445C, symBinAddr: 0x1000079F0, symSize: 0x14 }
  - { offsetInCU: 0x15924, offset: 0x15924, size: 0x8, addend: 0x0, symName: __ZNKSt3__16vectorI5PixelNS_9allocatorIS1_EEE4sizeB8ue170006Ev, symObjAddr: 0x4470, symBinAddr: 0x100007A04, symSize: 0x28 }
  - { offsetInCU: 0x1594A, offset: 0x1594A, size: 0x8, addend: 0x0, symName: __ZNSt3__19allocatorI5PixelE10deallocateB8ue170006EPS1_m, symObjAddr: 0x4498, symBinAddr: 0x100007A2C, symSize: 0x44 }
  - { offsetInCU: 0x1598C, offset: 0x1598C, size: 0x8, addend: 0x0, symName: __ZNSt3__16vectorI5PixelNS_9allocatorIS1_EEE13__move_assignERS4_NS_17integral_constantIbLb1EEE, symObjAddr: 0x45E4, symBinAddr: 0x100007B78, symSize: 0x94 }
  - { offsetInCU: 0x159CE, offset: 0x159CE, size: 0x8, addend: 0x0, symName: __ZNSt3__16vectorI5PixelNS_9allocatorIS1_EEE13__vdeallocateEv, symObjAddr: 0x4678, symBinAddr: 0x100007C0C, symSize: 0x94 }
  - { offsetInCU: 0x159F6, offset: 0x159F6, size: 0x8, addend: 0x0, symName: __ZNSt3__16vectorI5PixelNS_9allocatorIS1_EEE19__move_assign_allocB8ue170006ERS4_, symObjAddr: 0x470C, symBinAddr: 0x100007CA0, symSize: 0x2C }
  - { offsetInCU: 0x15A2B, offset: 0x15A2B, size: 0x8, addend: 0x0, symName: __ZNSt3__16vectorI5PixelNS_9allocatorIS1_EEE5clearB8ue170006Ev, symObjAddr: 0x4738, symBinAddr: 0x100007CCC, symSize: 0x44 }
  - { offsetInCU: 0x15A60, offset: 0x15A60, size: 0x8, addend: 0x0, symName: __ZNKSt3__16vectorI5PixelNS_9allocatorIS1_EEE17__annotate_shrinkB8ue170006Em, symObjAddr: 0x477C, symBinAddr: 0x100007D10, symSize: 0xD0 }
  - { offsetInCU: 0x15A95, offset: 0x15A95, size: 0x8, addend: 0x0, symName: __ZNSt3__16vectorI5PixelNS_9allocatorIS1_EEE19__move_assign_allocB8ue170006ERS4_NS_17integral_constantIbLb1EEE, symObjAddr: 0x484C, symBinAddr: 0x100007DE0, symSize: 0x38 }
  - { offsetInCU: 0x15AD5, offset: 0x15AD5, size: 0x8, addend: 0x0, symName: __ZNSt3__114basic_ifstreamIcNS_11char_traitsIcEEED2Ev, symObjAddr: 0x4884, symBinAddr: 0x100007E18, symSize: 0x64 }
  - { offsetInCU: 0x15B0F, offset: 0x15B0F, size: 0x8, addend: 0x0, symName: __ZTv0_n24_NSt3__114basic_ifstreamIcNS_11char_traitsIcEEED1Ev, symObjAddr: 0x48E8, symBinAddr: 0x100007E7C, symSize: 0x28 }
  - { offsetInCU: 0x15B26, offset: 0x15B26, size: 0x8, addend: 0x0, symName: __ZNSt3__16vectorI5PixelNS_9allocatorIS1_EEED2B8ue170006Ev, symObjAddr: 0x4910, symBinAddr: 0x100007EA4, symSize: 0x40 }
  - { offsetInCU: 0x15B50, offset: 0x15B50, size: 0x8, addend: 0x0, symName: __ZN8ImageTGAC2Ev, symObjAddr: 0x4950, symBinAddr: 0x100007EE4, symSize: 0x30 }
  - { offsetInCU: 0x15B7A, offset: 0x15B7A, size: 0x8, addend: 0x0, symName: __ZNK5PixelmlERKS_, symObjAddr: 0x4980, symBinAddr: 0x100007F14, symSize: 0xB0 }
  - { offsetInCU: 0x15BBC, offset: 0x15BBC, size: 0x8, addend: 0x0, symName: __ZN5Pixel5clampEi, symObjAddr: 0x4A30, symBinAddr: 0x100007FC4, symSize: 0x94 }
  - { offsetInCU: 0x15BFB, offset: 0x15BFB, size: 0x8, addend: 0x0, symName: __ZN8ImageTGAD2Ev, symObjAddr: 0x4AC4, symBinAddr: 0x100008058, symSize: 0x30 }
  - { offsetInCU: 0x15C27, offset: 0x15C27, size: 0x8, addend: 0x0, symName: __ZN8ImageTGA11writeHeaderERNSt3__114basic_ofstreamIcNS0_11char_traitsIcEEEE6Header, symObjAddr: 0x4AF4, symBinAddr: 0x100008088, symSize: 0x120 }
  - { offsetInCU: 0x15C6A, offset: 0x15C6A, size: 0x8, addend: 0x0, symName: __ZN8ImageTGA9writeDataERNSt3__114basic_ofstreamIcNS0_11char_traitsIcEEEENS0_6vectorI5PixelNS0_9allocatorIS7_EEEE, symObjAddr: 0x4C14, symBinAddr: 0x1000081A8, symSize: 0xEC }
  - { offsetInCU: 0x15CCC, offset: 0x15CCC, size: 0x8, addend: 0x0, symName: __ZNSt3__16vectorI5PixelNS_9allocatorIS1_EEEC1ERKS4_, symObjAddr: 0x4D00, symBinAddr: 0x100008294, symSize: 0x34 }
  - { offsetInCU: 0x15D07, offset: 0x15D07, size: 0x8, addend: 0x0, symName: __ZNSt3__16vectorI5PixelNS_9allocatorIS1_EEEC2ERKS4_, symObjAddr: 0x4D34, symBinAddr: 0x1000082C8, symSize: 0x94 }
  - { offsetInCU: 0x15D42, offset: 0x15D42, size: 0x8, addend: 0x0, symName: __ZNSt3__116allocator_traitsINS_9allocatorI5PixelEEE37select_on_container_copy_constructionB8ue170006IS3_vvEES3_RKS3_, symObjAddr: 0x4DC8, symBinAddr: 0x10000835C, symSize: 0x10 }
  - { offsetInCU: 0x15D76, offset: 0x15D76, size: 0x8, addend: 0x0, symName: __ZNSt3__117__compressed_pairIP5PixelNS_9allocatorIS1_EEEC1B8ue170006IDnS4_EEOT_OT0_, symObjAddr: 0x4DD8, symBinAddr: 0x10000836C, symSize: 0x3C }
  - { offsetInCU: 0x15DCE, offset: 0x15DCE, size: 0x8, addend: 0x0, symName: __ZNSt3__16vectorI5PixelNS_9allocatorIS1_EEE16__init_with_sizeB8ue170006IPS1_S6_EEvT_T0_m, symObjAddr: 0x4E14, symBinAddr: 0x1000083A8, symSize: 0xB8 }
  - { offsetInCU: 0x15E42, offset: 0x15E42, size: 0x8, addend: 0x0, symName: __ZNSt3__117__compressed_pairIP5PixelNS_9allocatorIS1_EEEC2B8ue170006IDnS4_EEOT_OT0_, symObjAddr: 0x4ECC, symBinAddr: 0x100008460, symSize: 0x44 }
  - { offsetInCU: 0x15E9A, offset: 0x15E9A, size: 0x8, addend: 0x0, symName: __ZNSt3__122__compressed_pair_elemINS_9allocatorI5PixelEELi1ELb1EEC2B8ue170006IS3_vEEOT_, symObjAddr: 0x4F10, symBinAddr: 0x1000084A4, symSize: 0x18 }
  - { offsetInCU: 0x15EDC, offset: 0x15EDC, size: 0x8, addend: 0x0, symName: __ZNSt3__16vectorI5PixelNS_9allocatorIS1_EEE18__construct_at_endIPS1_S6_EEvT_T0_m, symObjAddr: 0x4F28, symBinAddr: 0x1000084BC, symSize: 0x8C }
  - { offsetInCU: 0x15F70, offset: 0x15F70, size: 0x8, addend: 0x0, symName: __ZNSt3__14pairIP5PixelS2_EC1B8ue170006IS2_S2_LPv0EEEOT_OT0_, symObjAddr: 0x5164, symBinAddr: 0x1000086F8, symSize: 0x3C }
  - { offsetInCU: 0x15FCE, offset: 0x15FCE, size: 0x8, addend: 0x0, symName: __ZNSt3__14pairIP5PixelS2_EC2B8ue170006IS2_S2_LPv0EEEOT_OT0_, symObjAddr: 0x51A0, symBinAddr: 0x100008734, symSize: 0x34 }
  - { offsetInCU: 0x16036, offset: 0x16036, size: 0x8, addend: 0x0, symName: __ZNKSt3__114__copy_trivialclB8ue170006I5PixelS2_Li0EEENS_4pairIPT_PT0_EES5_S5_S7_, symObjAddr: 0x5350, symBinAddr: 0x1000088E4, symSize: 0x48 }
  - { offsetInCU: 0x1609E, offset: 0x1609E, size: 0x8, addend: 0x0, symName: __ZNSt3__14pairIP5PixelS2_EC1B8ue170006IRS2_S2_LPv0EEEOT_OT0_, symObjAddr: 0x54EC, symBinAddr: 0x100008A80, symSize: 0x3C }
  - { offsetInCU: 0x160FC, offset: 0x160FC, size: 0x8, addend: 0x0, symName: __ZNSt3__14pairIP5PixelS2_EC2B8ue170006IRS2_S2_LPv0EEEOT_OT0_, symObjAddr: 0x5528, symBinAddr: 0x100008ABC, symSize: 0x34 }
  - { offsetInCU: 0x1615A, offset: 0x1615A, size: 0x8, addend: 0x0, symName: __ZNSt3__118__unwrap_iter_implIP5PixelLb1EE8__unwrapB8ue170006ES2_, symObjAddr: 0x555C, symBinAddr: 0x100008AF0, symSize: 0x24 }
  - { offsetInCU: 0x1617D, offset: 0x1617D, size: 0x8, addend: 0x0, symName: __ZNSt3__118__unwrap_iter_implIP5PixelLb1EE8__rewrapB8ue170006ES2_S2_, symObjAddr: 0x5580, symBinAddr: 0x100008B14, symSize: 0x58 }
  - { offsetInCU: 0x161AE, offset: 0x161AE, size: 0x8, addend: 0x0, symName: __ZNSt3__114basic_ofstreamIcNS_11char_traitsIcEEED2Ev, symObjAddr: 0x55D8, symBinAddr: 0x100008B6C, symSize: 0x64 }
  - { offsetInCU: 0x161E8, offset: 0x161E8, size: 0x8, addend: 0x0, symName: __ZTv0_n24_NSt3__114basic_ofstreamIcNS_11char_traitsIcEEED1Ev, symObjAddr: 0x563C, symBinAddr: 0x100008BD0, symSize: 0x28 }
  - { offsetInCU: 0x161FF, offset: 0x161FF, size: 0x8, addend: 0x0, symName: __ZNK5PixelmiERKS_, symObjAddr: 0x5664, symBinAddr: 0x100008BF8, symSize: 0x94 }
  - { offsetInCU: 0x16241, offset: 0x16241, size: 0x8, addend: 0x0, symName: __ZNSt3__114basic_ofstreamIcNS_11char_traitsIcEEE5closeEv, symObjAddr: 0x56F8, symBinAddr: 0x100008C8C, symSize: 0x58 }
  - { offsetInCU: 0x16269, offset: 0x16269, size: 0x8, addend: 0x0, symName: __ZNK5Pixel6screenERKS_, symObjAddr: 0x5750, symBinAddr: 0x100008CE4, symSize: 0xA4 }
  - { offsetInCU: 0x162AB, offset: 0x162AB, size: 0x8, addend: 0x0, symName: __ZNK5Pixel7overlayERKS_, symObjAddr: 0x57F4, symBinAddr: 0x100008D88, symSize: 0x1A8 }
  - { offsetInCU: 0x162ED, offset: 0x162ED, size: 0x8, addend: 0x0, symName: __ZNK5PixelplERKS_, symObjAddr: 0x599C, symBinAddr: 0x100008F30, symSize: 0x94 }
  - { offsetInCU: 0x1632F, offset: 0x1632F, size: 0x8, addend: 0x0, symName: __ZN5Pixel5scaleEiii, symObjAddr: 0x5A30, symBinAddr: 0x100008FC4, symSize: 0x78 }
  - { offsetInCU: 0x1637F, offset: 0x1637F, size: 0x8, addend: 0x0, symName: __ZN8ImageTGAC2ERKS_, symObjAddr: 0x5AA8, symBinAddr: 0x10000903C, symSize: 0x5C }
  - { offsetInCU: 0x163B4, offset: 0x163B4, size: 0x8, addend: 0x0, symName: __ZNSt3__16vectorI5PixelNS_9allocatorIS1_EEEaSB8ue170006ERKS4_, symObjAddr: 0x5B04, symBinAddr: 0x100009098, symSize: 0x68 }
  - { offsetInCU: 0x163EB, offset: 0x163EB, size: 0x8, addend: 0x0, symName: __ZNSt3__16vectorI5PixelNS_9allocatorIS1_EEE19__copy_assign_allocB8ue170006ERKS4_, symObjAddr: 0x5B6C, symBinAddr: 0x100009100, symSize: 0x2C }
  - { offsetInCU: 0x16420, offset: 0x16420, size: 0x8, addend: 0x0, symName: __ZNSt3__16vectorI5PixelNS_9allocatorIS1_EEE6assignIPS1_Li0EEEvT_S7_, symObjAddr: 0x5B98, symBinAddr: 0x10000912C, symSize: 0x5C }
  - { offsetInCU: 0x16475, offset: 0x16475, size: 0x8, addend: 0x0, symName: __ZNSt3__16vectorI5PixelNS_9allocatorIS1_EEE19__copy_assign_allocB8ue170006ERKS4_NS_17integral_constantIbLb0EEE, symObjAddr: 0x5BF4, symBinAddr: 0x100009188, symSize: 0x14 }
  - { offsetInCU: 0x164B1, offset: 0x164B1, size: 0x8, addend: 0x0, symName: __ZNSt3__16vectorI5PixelNS_9allocatorIS1_EEE18__assign_with_sizeB8ue170006IPS1_S6_EEvT_T0_l, symObjAddr: 0x5C08, symBinAddr: 0x10000919C, symSize: 0x164 }
  - { offsetInCU: 0x16561, offset: 0x16561, size: 0x8, addend: 0x0, symName: __ZNSt3__16vectorI5PixelNS_9allocatorIS1_EEE17__destruct_at_endB8ue170006EPS1_, symObjAddr: 0x5DCC, symBinAddr: 0x100009360, symSize: 0x4C }
  - { offsetInCU: 0x165A5, offset: 0x165A5, size: 0x8, addend: 0x0, symName: __ZNKSt3__16vectorI5PixelNS_9allocatorIS1_EEE11__recommendB8ue170006Em, symObjAddr: 0x5E18, symBinAddr: 0x1000093AC, symSize: 0xB4 }
  - { offsetInCU: 0x165FA, offset: 0x165FA, size: 0x8, addend: 0x0, symName: __ZNSt3__111char_traitsIcE6lengthB8ue170006EPKc, symObjAddr: 0x61DC, symBinAddr: 0x100009770, symSize: 0x34 }
  - { offsetInCU: 0x1663B, offset: 0x1663B, size: 0x8, addend: 0x0, symName: __ZNKSt3__113basic_ostreamIcNS_11char_traitsIcEEE6sentrycvbB8ue170006Ev, symObjAddr: 0x6210, symBinAddr: 0x1000097A4, symSize: 0x1C }
  - { offsetInCU: 0x16661, offset: 0x16661, size: 0x8, addend: 0x0, symName: __ZNSt3__119ostreambuf_iteratorIcNS_11char_traitsIcEEEC1B8ue170006ERNS_13basic_ostreamIcS2_EE, symObjAddr: 0x646C, symBinAddr: 0x100009A00, symSize: 0x34 }
  - { offsetInCU: 0x16699, offset: 0x16699, size: 0x8, addend: 0x0, symName: __ZNKSt3__18ios_base5flagsB8ue170006Ev, symObjAddr: 0x64A0, symBinAddr: 0x100009A34, symSize: 0x18 }
  - { offsetInCU: 0x166C1, offset: 0x166C1, size: 0x8, addend: 0x0, symName: __ZNKSt3__19basic_iosIcNS_11char_traitsIcEEE4fillB8ue170006Ev, symObjAddr: 0x64B8, symBinAddr: 0x100009A4C, symSize: 0x64 }
  - { offsetInCU: 0x166E9, offset: 0x166E9, size: 0x8, addend: 0x0, symName: __ZNKSt3__119ostreambuf_iteratorIcNS_11char_traitsIcEEE6failedB8ue170006Ev, symObjAddr: 0x651C, symBinAddr: 0x100009AB0, symSize: 0x24 }
  - { offsetInCU: 0x1670F, offset: 0x1670F, size: 0x8, addend: 0x0, symName: __ZNKSt3__18ios_base5widthB8ue170006Ev, symObjAddr: 0x6540, symBinAddr: 0x100009AD4, symSize: 0x18 }
  - { offsetInCU: 0x16737, offset: 0x16737, size: 0x8, addend: 0x0, symName: __ZNSt3__115basic_streambufIcNS_11char_traitsIcEEE5sputnB8ue170006EPKcl, symObjAddr: 0x6558, symBinAddr: 0x100009AEC, symSize: 0x3C }
  - { offsetInCU: 0x16779, offset: 0x16779, size: 0x8, addend: 0x0, symName: __ZNSt3__112basic_stringIcNS_11char_traitsIcEENS_9allocatorIcEEEC1B8ue170006Emc, symObjAddr: 0x6594, symBinAddr: 0x100009B28, symSize: 0x3C }
  - { offsetInCU: 0x167C1, offset: 0x167C1, size: 0x8, addend: 0x0, symName: __ZNSt3__112basic_stringIcNS_11char_traitsIcEENS_9allocatorIcEEE4dataB8ue170006Ev, symObjAddr: 0x65D0, symBinAddr: 0x100009B64, symSize: 0x28 }
  - { offsetInCU: 0x167E7, offset: 0x167E7, size: 0x8, addend: 0x0, symName: __ZNSt3__18ios_base5widthB8ue170006El, symObjAddr: 0x65F8, symBinAddr: 0x100009B8C, symSize: 0x2C }
  - { offsetInCU: 0x1682D, offset: 0x1682D, size: 0x8, addend: 0x0, symName: __ZNSt3__112basic_stringIcNS_11char_traitsIcEENS_9allocatorIcEEEC2B8ue170006Emc, symObjAddr: 0x6624, symBinAddr: 0x100009BB8, symSize: 0x4C }
  - { offsetInCU: 0x16875, offset: 0x16875, size: 0x8, addend: 0x0, symName: __ZNSt3__117__compressed_pairINS_12basic_stringIcNS_11char_traitsIcEENS_9allocatorIcEEE5__repES5_EC1B8ue170006INS_18__default_init_tagESA_EEOT_OT0_, symObjAddr: 0x6670, symBinAddr: 0x100009C04, symSize: 0x3C }
  - { offsetInCU: 0x168CD, offset: 0x168CD, size: 0x8, addend: 0x0, symName: __ZNSt3__117__compressed_pairINS_12basic_stringIcNS_11char_traitsIcEENS_9allocatorIcEEE5__repES5_EC2B8ue170006INS_18__default_init_tagESA_EEOT_OT0_, symObjAddr: 0x66AC, symBinAddr: 0x100009C40, symSize: 0x3C }
  - { offsetInCU: 0x16925, offset: 0x16925, size: 0x8, addend: 0x0, symName: __ZNSt3__122__compressed_pair_elemINS_12basic_stringIcNS_11char_traitsIcEENS_9allocatorIcEEE5__repELi0ELb0EEC2B8ue170006ENS_18__default_init_tagE, symObjAddr: 0x66E8, symBinAddr: 0x100009C7C, symSize: 0x14 }
  - { offsetInCU: 0x16959, offset: 0x16959, size: 0x8, addend: 0x0, symName: __ZNSt3__122__compressed_pair_elemINS_9allocatorIcEELi1ELb1EEC2B8ue170006ENS_18__default_init_tagE, symObjAddr: 0x66FC, symBinAddr: 0x100009C90, symSize: 0x2C }
  - { offsetInCU: 0x1698D, offset: 0x1698D, size: 0x8, addend: 0x0, symName: __ZNSt3__19allocatorIcEC2B8ue170006Ev, symObjAddr: 0x6728, symBinAddr: 0x100009CBC, symSize: 0x2C }
  - { offsetInCU: 0x169B7, offset: 0x169B7, size: 0x8, addend: 0x0, symName: __ZNSt3__116__non_trivial_ifILb1ENS_9allocatorIcEEEC2B8ue170006Ev, symObjAddr: 0x6754, symBinAddr: 0x100009CE8, symSize: 0x14 }
  - { offsetInCU: 0x169E1, offset: 0x169E1, size: 0x8, addend: 0x0, symName: __ZNSt3__112basic_stringIcNS_11char_traitsIcEENS_9allocatorIcEEE13__get_pointerB8ue170006Ev, symObjAddr: 0x677C, symBinAddr: 0x100009D10, symSize: 0x54 }
  - { offsetInCU: 0x16A07, offset: 0x16A07, size: 0x8, addend: 0x0, symName: __ZNSt3__112basic_stringIcNS_11char_traitsIcEENS_9allocatorIcEEE18__get_long_pointerB8ue170006Ev, symObjAddr: 0x67D0, symBinAddr: 0x100009D64, symSize: 0x28 }
  - { offsetInCU: 0x16A2D, offset: 0x16A2D, size: 0x8, addend: 0x0, symName: __ZNSt3__112basic_stringIcNS_11char_traitsIcEENS_9allocatorIcEEE19__get_short_pointerB8ue170006Ev, symObjAddr: 0x67F8, symBinAddr: 0x100009D8C, symSize: 0x28 }
  - { offsetInCU: 0x16A53, offset: 0x16A53, size: 0x8, addend: 0x0, symName: __ZNSt3__117__compressed_pairINS_12basic_stringIcNS_11char_traitsIcEENS_9allocatorIcEEE5__repES5_E5firstB8ue170006Ev, symObjAddr: 0x6820, symBinAddr: 0x100009DB4, symSize: 0x24 }
  - { offsetInCU: 0x16A79, offset: 0x16A79, size: 0x8, addend: 0x0, symName: __ZNSt3__122__compressed_pair_elemINS_12basic_stringIcNS_11char_traitsIcEENS_9allocatorIcEEE5__repELi0ELb0EE5__getB8ue170006Ev, symObjAddr: 0x6844, symBinAddr: 0x100009DD8, symSize: 0x14 }
  - { offsetInCU: 0x16A9F, offset: 0x16A9F, size: 0x8, addend: 0x0, symName: __ZNSt3__114pointer_traitsIPcE10pointer_toB8ue170006ERc, symObjAddr: 0x6858, symBinAddr: 0x100009DEC, symSize: 0x14 }
  - { offsetInCU: 0x16AC2, offset: 0x16AC2, size: 0x8, addend: 0x0, symName: __ZNSt3__119ostreambuf_iteratorIcNS_11char_traitsIcEEEC2B8ue170006ERNS_13basic_ostreamIcS2_EE, symObjAddr: 0x686C, symBinAddr: 0x100009E00, symSize: 0x54 }
  - { offsetInCU: 0x16AFA, offset: 0x16AFA, size: 0x8, addend: 0x0, symName: __ZNKSt3__19basic_iosIcNS_11char_traitsIcEEE5rdbufB8ue170006Ev, symObjAddr: 0x68C0, symBinAddr: 0x100009E54, symSize: 0x24 }
  - { offsetInCU: 0x16B22, offset: 0x16B22, size: 0x8, addend: 0x0, symName: __ZNKSt3__18ios_base5rdbufB8ue170006Ev, symObjAddr: 0x68E4, symBinAddr: 0x100009E78, symSize: 0x18 }
  - { offsetInCU: 0x16B48, offset: 0x16B48, size: 0x8, addend: 0x0, symName: __ZNSt3__111char_traitsIcE11eq_int_typeB8ue170006Eii, symObjAddr: 0x68FC, symBinAddr: 0x100009E90, symSize: 0x28 }
  - { offsetInCU: 0x16B7B, offset: 0x16B7B, size: 0x8, addend: 0x0, symName: __ZNKSt3__19basic_iosIcNS_11char_traitsIcEEE5widenB8ue170006Ec, symObjAddr: 0x6924, symBinAddr: 0x100009EB8, symSize: 0x84 }
  - { offsetInCU: 0x16BE4, offset: 0x16BE4, size: 0x8, addend: 0x0, symName: __ZNKSt3__15ctypeIcE5widenB8ue170006Ec, symObjAddr: 0x69D4, symBinAddr: 0x100009F68, symSize: 0x38 }
  - { offsetInCU: 0x16C19, offset: 0x16C19, size: 0x8, addend: 0x0, symName: __ZNSt3__113basic_ostreamIcNS_11char_traitsIcEEEC2B8ue170006EPNS_15basic_streambufIcS2_EE, symObjAddr: 0x6A30, symBinAddr: 0x100009FC4, symSize: 0x60 }
  - { offsetInCU: 0x16C5E, offset: 0x16C5E, size: 0x8, addend: 0x0, symName: __ZNSt3__112basic_stringIcNS_11char_traitsIcEENS_9allocatorIcEEEC2B8ue170006ILi0EEEPKc, symObjAddr: 0x6A90, symBinAddr: 0x10000A024, symSize: 0x58 }
  - { offsetInCU: 0x16C9D, offset: 0x16C9D, size: 0x8, addend: 0x0, symName: __ZNKSt3__112basic_stringIcNS_11char_traitsIcEENS_9allocatorIcEEE4sizeB8ue170006Ev, symObjAddr: 0x6AE8, symBinAddr: 0x10000A07C, symSize: 0x54 }
  - { offsetInCU: 0x16CCD, offset: 0x16CCD, size: 0x8, addend: 0x0, symName: __ZNSt3__116allocator_traitsINS_9allocatorIcEEE37select_on_container_copy_constructionB8ue170006IS2_vvEES2_RKS2_, symObjAddr: 0x6B3C, symBinAddr: 0x10000A0D0, symSize: 0x10 }
  - { offsetInCU: 0x16CFC, offset: 0x16CFC, size: 0x8, addend: 0x0, symName: __ZNKSt3__112basic_stringIcNS_11char_traitsIcEENS_9allocatorIcEEE13get_allocatorB8ue170006Ev, symObjAddr: 0x6B4C, symBinAddr: 0x10000A0E0, symSize: 0x24 }
  - { offsetInCU: 0x16D22, offset: 0x16D22, size: 0x8, addend: 0x0, symName: __ZNSt3__112basic_stringIcNS_11char_traitsIcEENS_9allocatorIcEEEC1B8ue170006ENS_24__uninitialized_size_tagEmRKS4_, symObjAddr: 0x6B70, symBinAddr: 0x10000A104, symSize: 0x3C }
  - { offsetInCU: 0x16D75, offset: 0x16D75, size: 0x8, addend: 0x0, symName: __ZNSt3__111char_traitsIcE4copyB8ue170006EPcPKcm, symObjAddr: 0x6BAC, symBinAddr: 0x10000A140, symSize: 0x40 }
  - { offsetInCU: 0x16DB4, offset: 0x16DB4, size: 0x8, addend: 0x0, symName: __ZNSt3__111char_traitsIcE6assignB8ue170006EPcmc, symObjAddr: 0x6BEC, symBinAddr: 0x10000A180, symSize: 0x44 }
  - { offsetInCU: 0x16DF3, offset: 0x16DF3, size: 0x8, addend: 0x0, symName: __ZNKSt3__112basic_stringIcNS_11char_traitsIcEENS_9allocatorIcEEE15__get_long_sizeB8ue170006Ev, symObjAddr: 0x6C30, symBinAddr: 0x10000A1C4, symSize: 0x28 }
  - { offsetInCU: 0x16E19, offset: 0x16E19, size: 0x8, addend: 0x0, symName: __ZNKSt3__112basic_stringIcNS_11char_traitsIcEENS_9allocatorIcEEE16__get_short_sizeB8ue170006Ev, symObjAddr: 0x6C58, symBinAddr: 0x10000A1EC, symSize: 0x34 }
  - { offsetInCU: 0x16E3F, offset: 0x16E3F, size: 0x8, addend: 0x0, symName: __ZNKSt3__112basic_stringIcNS_11char_traitsIcEENS_9allocatorIcEEE7__allocB8ue170006Ev, symObjAddr: 0x6C8C, symBinAddr: 0x10000A220, symSize: 0x24 }
  - { offsetInCU: 0x16E65, offset: 0x16E65, size: 0x8, addend: 0x0, symName: __ZNKSt3__117__compressed_pairINS_12basic_stringIcNS_11char_traitsIcEENS_9allocatorIcEEE5__repES5_E6secondB8ue170006Ev, symObjAddr: 0x6CB0, symBinAddr: 0x10000A244, symSize: 0x24 }
  - { offsetInCU: 0x16E8B, offset: 0x16E8B, size: 0x8, addend: 0x0, symName: __ZNKSt3__122__compressed_pair_elemINS_9allocatorIcEELi1ELb1EE5__getB8ue170006Ev, symObjAddr: 0x6CD4, symBinAddr: 0x10000A268, symSize: 0x14 }
  - { offsetInCU: 0x16EB1, offset: 0x16EB1, size: 0x8, addend: 0x0, symName: __ZNSt3__112basic_stringIcNS_11char_traitsIcEENS_9allocatorIcEEEC2B8ue170006ENS_24__uninitialized_size_tagEmRKS4_, symObjAddr: 0x6CE8, symBinAddr: 0x10000A27C, symSize: 0x110 }
  - { offsetInCU: 0x16F30, offset: 0x16F30, size: 0x8, addend: 0x0, symName: __ZNSt3__117__compressed_pairINS_12basic_stringIcNS_11char_traitsIcEENS_9allocatorIcEEE5__repES5_EC1B8ue170006INS_18__default_init_tagERKS5_EEOT_OT0_, symObjAddr: 0x6DF8, symBinAddr: 0x10000A38C, symSize: 0x3C }
  - { offsetInCU: 0x16F88, offset: 0x16F88, size: 0x8, addend: 0x0, symName: __ZNKSt3__112basic_stringIcNS_11char_traitsIcEENS_9allocatorIcEEE8max_sizeB8ue170006Ev, symObjAddr: 0x6E34, symBinAddr: 0x10000A3C8, symSize: 0xAC }
  - { offsetInCU: 0x16FDA, offset: 0x16FDA, size: 0x8, addend: 0x0, symName: __ZNKSt3__112basic_stringIcNS_11char_traitsIcEENS_9allocatorIcEEE20__throw_length_errorB8ue170006Ev, symObjAddr: 0x6EE0, symBinAddr: 0x10000A474, symSize: 0x1C }
  - { offsetInCU: 0x17000, offset: 0x17000, size: 0x8, addend: 0x0, symName: __ZNSt3__112basic_stringIcNS_11char_traitsIcEENS_9allocatorIcEEE13__fits_in_ssoB8ue170006Em, symObjAddr: 0x6EFC, symBinAddr: 0x10000A490, symSize: 0x20 }
  - { offsetInCU: 0x17024, offset: 0x17024, size: 0x8, addend: 0x0, symName: __ZNSt3__112basic_stringIcNS_11char_traitsIcEENS_9allocatorIcEEE16__set_short_sizeB8ue170006Em, symObjAddr: 0x6F1C, symBinAddr: 0x10000A4B0, symSize: 0x78 }
  - { offsetInCU: 0x17059, offset: 0x17059, size: 0x8, addend: 0x0, symName: __ZNSt3__112basic_stringIcNS_11char_traitsIcEENS_9allocatorIcEEE11__recommendB8ue170006Em, symObjAddr: 0x6F94, symBinAddr: 0x10000A528, symSize: 0x84 }
  - { offsetInCU: 0x1708C, offset: 0x1708C, size: 0x8, addend: 0x0, symName: __ZNSt3__116allocator_traitsINS_9allocatorIcEEE8allocateB8ue170006ERS2_m, symObjAddr: 0x7018, symBinAddr: 0x10000A5AC, symSize: 0x2C }
  - { offsetInCU: 0x170BF, offset: 0x170BF, size: 0x8, addend: 0x0, symName: __ZNSt3__112basic_stringIcNS_11char_traitsIcEENS_9allocatorIcEEE7__allocB8ue170006Ev, symObjAddr: 0x7044, symBinAddr: 0x10000A5D8, symSize: 0x24 }
  - { offsetInCU: 0x170E5, offset: 0x170E5, size: 0x8, addend: 0x0, symName: __ZNSt3__112basic_stringIcNS_11char_traitsIcEENS_9allocatorIcEEE16__begin_lifetimeB8ue170006EPcm, symObjAddr: 0x7068, symBinAddr: 0x10000A5FC, symSize: 0x14 }
  - { offsetInCU: 0x17118, offset: 0x17118, size: 0x8, addend: 0x0, symName: __ZNSt3__112basic_stringIcNS_11char_traitsIcEENS_9allocatorIcEEE14__set_long_capB8ue170006Em, symObjAddr: 0x707C, symBinAddr: 0x10000A610, symSize: 0x70 }
  - { offsetInCU: 0x1714D, offset: 0x1714D, size: 0x8, addend: 0x0, symName: __ZNSt3__112basic_stringIcNS_11char_traitsIcEENS_9allocatorIcEEE18__set_long_pointerB8ue170006EPc, symObjAddr: 0x70EC, symBinAddr: 0x10000A680, symSize: 0x38 }
  - { offsetInCU: 0x17182, offset: 0x17182, size: 0x8, addend: 0x0, symName: __ZNSt3__112basic_stringIcNS_11char_traitsIcEENS_9allocatorIcEEE15__set_long_sizeB8ue170006Em, symObjAddr: 0x7124, symBinAddr: 0x10000A6B8, symSize: 0x38 }
  - { offsetInCU: 0x171B7, offset: 0x171B7, size: 0x8, addend: 0x0, symName: __ZNSt3__117__compressed_pairINS_12basic_stringIcNS_11char_traitsIcEENS_9allocatorIcEEE5__repES5_EC2B8ue170006INS_18__default_init_tagERKS5_EEOT_OT0_, symObjAddr: 0x715C, symBinAddr: 0x10000A6F0, symSize: 0x40 }
  - { offsetInCU: 0x1720F, offset: 0x1720F, size: 0x8, addend: 0x0, symName: __ZNSt3__122__compressed_pair_elemINS_9allocatorIcEELi1ELb1EEC2B8ue170006IRKS2_vEEOT_, symObjAddr: 0x719C, symBinAddr: 0x10000A730, symSize: 0x18 }
  - { offsetInCU: 0x17251, offset: 0x17251, size: 0x8, addend: 0x0, symName: __ZNSt3__116allocator_traitsINS_9allocatorIcEEE8max_sizeB8ue170006IS2_vEEmRKS2_, symObjAddr: 0x71B4, symBinAddr: 0x10000A748, symSize: 0x24 }
  - { offsetInCU: 0x1727F, offset: 0x1727F, size: 0x8, addend: 0x0, symName: __ZNSt3__114numeric_limitsImE3maxB8ue170006Ev, symObjAddr: 0x71D8, symBinAddr: 0x10000A76C, symSize: 0x14 }
  - { offsetInCU: 0x17293, offset: 0x17293, size: 0x8, addend: 0x0, symName: __ZNKSt3__19allocatorIcE8max_sizeB8ue170006Ev, symObjAddr: 0x71EC, symBinAddr: 0x10000A780, symSize: 0x14 }
  - { offsetInCU: 0x172B9, offset: 0x172B9, size: 0x8, addend: 0x0, symName: __ZNSt3__123__libcpp_numeric_limitsImLb1EE3maxB8ue170006Ev, symObjAddr: 0x7200, symBinAddr: 0x10000A794, symSize: 0x8 }
  - { offsetInCU: 0x172CD, offset: 0x172CD, size: 0x8, addend: 0x0, symName: __ZNSt3__112basic_stringIcNS_11char_traitsIcEENS_9allocatorIcEEE10__align_itB8ue170006ILm16EEEmm, symObjAddr: 0x7208, symBinAddr: 0x10000A79C, symSize: 0x1C }
  - { offsetInCU: 0x172FB, offset: 0x172FB, size: 0x8, addend: 0x0, symName: __ZNSt3__19allocatorIcE8allocateB8ue170006Em, symObjAddr: 0x7224, symBinAddr: 0x10000A7B8, symSize: 0x58 }
  - { offsetInCU: 0x1732F, offset: 0x1732F, size: 0x8, addend: 0x0, symName: __ZNSt3__117__compressed_pairINS_12basic_stringIcNS_11char_traitsIcEENS_9allocatorIcEEE5__repES5_E6secondB8ue170006Ev, symObjAddr: 0x727C, symBinAddr: 0x10000A810, symSize: 0x24 }
  - { offsetInCU: 0x17355, offset: 0x17355, size: 0x8, addend: 0x0, symName: __ZNSt3__122__compressed_pair_elemINS_9allocatorIcEELi1ELb1EE5__getB8ue170006Ev, symObjAddr: 0x72A0, symBinAddr: 0x10000A834, symSize: 0x14 }
  - { offsetInCU: 0x17394, offset: 0x17394, size: 0x8, addend: 0x0, symName: __ZNKSt3__114__copy_trivialclB8ue170006IKccLi0EEENS_4pairIPT_PT0_EES5_S5_S7_, symObjAddr: 0x74D4, symBinAddr: 0x10000AA68, symSize: 0x48 }
  - { offsetInCU: 0x1741A, offset: 0x1741A, size: 0x8, addend: 0x0, symName: __ZNSt3__14pairIPKcS2_EC1B8ue170006IS2_S2_LPv0EEEOT_OT0_, symObjAddr: 0x763C, symBinAddr: 0x10000ABD0, symSize: 0x3C }
  - { offsetInCU: 0x17478, offset: 0x17478, size: 0x8, addend: 0x0, symName: __ZNSt3__14pairIPKcS2_EC2B8ue170006IS2_S2_LPv0EEEOT_OT0_, symObjAddr: 0x7678, symBinAddr: 0x10000AC0C, symSize: 0x34 }
  - { offsetInCU: 0x174D6, offset: 0x174D6, size: 0x8, addend: 0x0, symName: __ZNSt3__118__unwrap_iter_implIPKcLb1EE8__unwrapB8ue170006ES2_, symObjAddr: 0x76AC, symBinAddr: 0x10000AC40, symSize: 0x24 }
  - { offsetInCU: 0x17503, offset: 0x17503, size: 0x8, addend: 0x0, symName: __ZNSt3__14pairIPKcPcEC1B8ue170006IRS2_S3_LPv0EEEOT_OT0_, symObjAddr: 0x77E4, symBinAddr: 0x10000AD78, symSize: 0x3C }
  - { offsetInCU: 0x17561, offset: 0x17561, size: 0x8, addend: 0x0, symName: __ZNSt3__14pairIPKcPcEC2B8ue170006IRS2_S3_LPv0EEEOT_OT0_, symObjAddr: 0x7820, symBinAddr: 0x10000ADB4, symSize: 0x34 }
  - { offsetInCU: 0x175BF, offset: 0x175BF, size: 0x8, addend: 0x0, symName: __ZNSt3__118__unwrap_iter_implIPcLb1EE8__unwrapB8ue170006ES1_, symObjAddr: 0x7854, symBinAddr: 0x10000ADE8, symSize: 0x24 }
  - { offsetInCU: 0x175E2, offset: 0x175E2, size: 0x8, addend: 0x0, symName: __ZNSt3__14pairIPKcPcEC1B8ue170006IS2_S3_LPv0EEEOT_OT0_, symObjAddr: 0x7878, symBinAddr: 0x10000AE0C, symSize: 0x3C }
  - { offsetInCU: 0x17640, offset: 0x17640, size: 0x8, addend: 0x0, symName: __ZNSt3__14pairIPKcPcEC2B8ue170006IS2_S3_LPv0EEEOT_OT0_, symObjAddr: 0x78B4, symBinAddr: 0x10000AE48, symSize: 0x34 }
  - { offsetInCU: 0x1769E, offset: 0x1769E, size: 0x8, addend: 0x0, symName: __ZNSt3__118__unwrap_iter_implIPKcLb1EE8__rewrapB8ue170006ES2_S2_, symObjAddr: 0x7924, symBinAddr: 0x10000AEB8, symSize: 0x48 }
  - { offsetInCU: 0x176CF, offset: 0x176CF, size: 0x8, addend: 0x0, symName: __ZNSt3__118__unwrap_iter_implIPcLb1EE8__rewrapB8ue170006ES1_S1_, symObjAddr: 0x796C, symBinAddr: 0x10000AF00, symSize: 0x48 }
...
